; ModuleID = '6/915.c'
source_filename = "6/915.c"
target datalayout = "e-m:e-p270:32:32-p271:32:32-p272:64:64-i64:64-f80:128-n8:16:32:64-S128"
target triple = "x86_64-pc-linux-gnu"

@.str = private unnamed_addr constant [3 x i8] c"%d\00", align 1
@.str.1 = private unnamed_addr constant [6 x i8] c"%d %d\00", align 1
@.str.2 = private unnamed_addr constant [4 x i8] c"%d\0A\00", align 1

; Function Attrs: noinline nounwind uwtable
define dso_local i32 @main() #0 {
  %1 = alloca i32, align 4
  %2 = alloca i32, align 4
  %3 = alloca i32, align 4
  %4 = alloca i32, align 4
  %5 = alloca i32, align 4
  %6 = alloca i32, align 4
  %7 = alloca i32, align 4
  %8 = alloca [100 x [100 x i32]], align 16
  %9 = alloca i32, align 4
  store i32 0, i32* %1, align 4
  %10 = call i32 (i8*, ...) @__isoc99_scanf(i8* getelementptr inbounds ([3 x i8], [3 x i8]* @.str, i64 0, i64 0), i32* %2)
  store i32 1, i32* %7, align 4
  br label %11

11:                                               ; preds = %104, %0
  %12 = load i32, i32* %7, align 4
  %13 = load i32, i32* %2, align 4
  %14 = icmp sle i32 %12, %13
  br i1 %14, label %15, label %107

15:                                               ; preds = %11
  store i32 0, i32* %9, align 4
  %16 = call i32 (i8*, ...) @__isoc99_scanf(i8* getelementptr inbounds ([6 x i8], [6 x i8]* @.str.1, i64 0, i64 0), i32* %3, i32* %4)
  store i32 0, i32* %5, align 4
  br label %17

17:                                               ; preds = %40, %15
  %18 = load i32, i32* %5, align 4
  %19 = load i32, i32* %3, align 4
  %20 = sub nsw i32 %19, 1
  %21 = icmp sle i32 %18, %20
  br i1 %21, label %22, label %43

22:                                               ; preds = %17
  store i32 0, i32* %6, align 4
  br label %23

23:                                               ; preds = %36, %22
  %24 = load i32, i32* %6, align 4
  %25 = load i32, i32* %4, align 4
  %26 = sub nsw i32 %25, 1
  %27 = icmp sle i32 %24, %26
  br i1 %27, label %28, label %39

28:                                               ; preds = %23
  %29 = load i32, i32* %5, align 4
  %30 = sext i32 %29 to i64
  %31 = getelementptr inbounds [100 x [100 x i32]], [100 x [100 x i32]]* %8, i64 0, i64 %30
  %32 = load i32, i32* %6, align 4
  %33 = sext i32 %32 to i64
  %34 = getelementptr inbounds [100 x i32], [100 x i32]* %31, i64 0, i64 %33
  %35 = call i32 (i8*, ...) @__isoc99_scanf(i8* getelementptr inbounds ([3 x i8], [3 x i8]* @.str, i64 0, i64 0), i32* %34)
  br label %36

36:                                               ; preds = %28
  %37 = load i32, i32* %6, align 4
  %38 = add nsw i32 %37, 1
  store i32 %38, i32* %6, align 4
  br label %23

39:                                               ; preds = %23
  br label %40

40:                                               ; preds = %39
  %41 = load i32, i32* %5, align 4
  %42 = add nsw i32 %41, 1
  store i32 %42, i32* %5, align 4
  br label %17

43:                                               ; preds = %17
  store i32 0, i32* %5, align 4
  br label %44

44:                                               ; preds = %69, %43
  %45 = load i32, i32* %5, align 4
  %46 = load i32, i32* %3, align 4
  %47 = sub nsw i32 %46, 1
  %48 = icmp sle i32 %45, %47
  br i1 %48, label %49, label %72

49:                                               ; preds = %44
  store i32 0, i32* %6, align 4
  br label %50

50:                                               ; preds = %65, %49
  %51 = load i32, i32* %6, align 4
  %52 = load i32, i32* %4, align 4
  %53 = sub nsw i32 %52, 1
  %54 = icmp sle i32 %51, %53
  br i1 %54, label %55, label %68

55:                                               ; preds = %50
  %56 = load i32, i32* %9, align 4
  %57 = load i32, i32* %5, align 4
  %58 = sext i32 %57 to i64
  %59 = getelementptr inbounds [100 x [100 x i32]], [100 x [100 x i32]]* %8, i64 0, i64 %58
  %60 = load i32, i32* %6, align 4
  %61 = sext i32 %60 to i64
  %62 = getelementptr inbounds [100 x i32], [100 x i32]* %59, i64 0, i64 %61
  %63 = load i32, i32* %62, align 4
  %64 = add nsw i32 %56, %63
  store i32 %64, i32* %9, align 4
  br label %65

65:                                               ; preds = %55
  %66 = load i32, i32* %6, align 4
  %67 = add nsw i32 %66, 1
  store i32 %67, i32* %6, align 4
  br label %50

68:                                               ; preds = %50
  br label %69

69:                                               ; preds = %68
  %70 = load i32, i32* %5, align 4
  %71 = add nsw i32 %70, 1
  store i32 %71, i32* %5, align 4
  br label %44

72:                                               ; preds = %44
  store i32 1, i32* %5, align 4
  br label %73

73:                                               ; preds = %98, %72
  %74 = load i32, i32* %5, align 4
  %75 = load i32, i32* %3, align 4
  %76 = sub nsw i32 %75, 2
  %77 = icmp sle i32 %74, %76
  br i1 %77, label %78, label %101

78:                                               ; preds = %73
  store i32 1, i32* %6, align 4
  br label %79

79:                                               ; preds = %94, %78
  %80 = load i32, i32* %6, align 4
  %81 = load i32, i32* %4, align 4
  %82 = sub nsw i32 %81, 2
  %83 = icmp sle i32 %80, %82
  br i1 %83, label %84, label %97

84:                                               ; preds = %79
  %85 = load i32, i32* %9, align 4
  %86 = load i32, i32* %5, align 4
  %87 = sext i32 %86 to i64
  %88 = getelementptr inbounds [100 x [100 x i32]], [100 x [100 x i32]]* %8, i64 0, i64 %87
  %89 = load i32, i32* %6, align 4
  %90 = sext i32 %89 to i64
  %91 = getelementptr inbounds [100 x i32], [100 x i32]* %88, i64 0, i64 %90
  %92 = load i32, i32* %91, align 4
  %93 = sub nsw i32 %85, %92
  store i32 %93, i32* %9, align 4
  br label %94

94:                                               ; preds = %84
  %95 = load i32, i32* %6, align 4
  %96 = add nsw i32 %95, 1
  store i32 %96, i32* %6, align 4
  br label %79

97:                                               ; preds = %79
  br label %98

98:                                               ; preds = %97
  %99 = load i32, i32* %5, align 4
  %100 = add nsw i32 %99, 1
  store i32 %100, i32* %5, align 4
  br label %73

101:                                              ; preds = %73
  %102 = load i32, i32* %9, align 4
  %103 = call i32 (i8*, ...) @printf(i8* getelementptr inbounds ([4 x i8], [4 x i8]* @.str.2, i64 0, i64 0), i32 %102)
  br label %104

104:                                              ; preds = %101
  %105 = load i32, i32* %7, align 4
  %106 = add nsw i32 %105, 1
  store i32 %106, i32* %7, align 4
  br label %11

107:                                              ; preds = %11
  ret i32 0
}

declare dso_local i32 @__isoc99_scanf(i8*, ...) #1

declare dso_local i32 @printf(i8*, ...) #1


!llvm.module.flags = !{!0}
!llvm.ident = !{!1}

!0 = !{i32 1, !"wchar_size", i32 4}
!1 = !{!"clang version 10.0.0-4ubuntu1 "}
